target datalayout = "e-m:e-p270:32:32-p271:32:32-p272:64:64-i64:64-i128:128-f80:128-n8:16:32:64-S128"
target triple = "x86_64-pc-linux-gnu"

%struct.include_info = type { i32, i32, ptr, i32 }

; Function Attrs: nounwind uwtable
define void @stb_include_free_includes(ptr noundef %0, i32 noundef %1) #0 {
  %3 = alloca ptr, align 8
  %4 = alloca i32, align 4
  %5 = alloca i32, align 4
  store ptr %0, ptr %3, align 8, !tbaa !15
  store i32 %1, ptr %4, align 4, !tbaa !16
  call void @llvm.lifetime.start.p0(i64 4, ptr %5) #8
  store i32 0, ptr %5, align 4, !tbaa !16
  br label %6

6:                                                ; preds = %17, %2
  %7 = load i32, ptr %5, align 4, !tbaa !16
  %8 = load i32, ptr %4, align 4, !tbaa !16
  %9 = icmp slt i32 %7, %8
  br i1 %9, label %10, label %20

10:                                               ; preds = %6
  %11 = load ptr, ptr %3, align 8, !tbaa !15
  %12 = load i32, ptr %5, align 4, !tbaa !16
  %13 = sext i32 %12 to i64
  %14 = getelementptr inbounds %struct.include_info, ptr %11, i64 %13
  %15 = getelementptr inbounds nuw %struct.include_info, ptr %14, i32 0, i32 2
  %16 = load ptr, ptr %15, align 8, !tbaa !21
  call void @free(ptr noundef %16) #8
  br label %17

17:                                               ; preds = %10
  %18 = load i32, ptr %5, align 4, !tbaa !16
  %19 = add nsw i32 %18, 1
  store i32 %19, ptr %5, align 4, !tbaa !16
  br label %6, !llvm.loop !23

20:                                               ; preds = %6
  %21 = load ptr, ptr %3, align 8, !tbaa !15
  call void @free(ptr noundef %21) #8
  call void @llvm.lifetime.end.p0(i64 4, ptr %5) #8
  ret void
}